target datalayout = "e-m:e-p270:32:32-p271:32:32-p272:64:64-i64:64-i128:128-f80:128-n8:16:32:64-S128"
target triple = "x86_64-pc-linux-gnu"

%"struct.absl::debian2::container_internal::internal_compressed_tuple::Storage" = type { i64 }
%"class.open_spiel::algorithms::MDP" = type <{ %"class.absl::debian2::flat_hash_map.18", i32, i32, i32, [4 x i8] }>
%"class.absl::debian2::flat_hash_map.18" = type { %"class.absl::debian2::container_internal::raw_hash_map.19" }
%"class.absl::debian2::container_internal::raw_hash_map.19" = type { %"class.absl::debian2::container_internal::raw_hash_set.20" }
%"class.absl::debian2::container_internal::raw_hash_set.20" = type { ptr, ptr, i64, i64, %"class.absl::debian2::container_internal::CompressedTuple.21" }
%"class.absl::debian2::container_internal::CompressedTuple.21" = type { %"struct.absl::debian2::container_internal::internal_compressed_tuple::CompressedTupleImpl.22" }
%"struct.absl::debian2::container_internal::internal_compressed_tuple::CompressedTupleImpl.22" = type { %"struct.absl::debian2::container_internal::internal_compressed_tuple::Storage" }
%"class.open_spiel::algorithms::TabularBestResponseMDP" = type <{ %"class.std::vector.58", ptr, ptr, i32, [4 x i8] }>
%"class.std::vector.58" = type { %"struct.std::_Vector_base.59" }
%"struct.std::_Vector_base.59" = type { %"struct.std::_Vector_base<std::unique_ptr<open_spiel::algorithms::MDP>, std::allocator<std::unique_ptr<open_spiel::algorithms::MDP>>>::_Vector_impl" }
%"struct.std::_Vector_base<std::unique_ptr<open_spiel::algorithms::MDP>, std::allocator<std::unique_ptr<open_spiel::algorithms::MDP>>>::_Vector_impl" = type { %"struct.std::_Vector_base<std::unique_ptr<open_spiel::algorithms::MDP>, std::allocator<std::unique_ptr<open_spiel::algorithms::MDP>>>::_Vector_impl_data" }
%"struct.std::_Vector_base<std::unique_ptr<open_spiel::algorithms::MDP>, std::allocator<std::unique_ptr<open_spiel::algorithms::MDP>>>::_Vector_impl_data" = type { ptr, ptr, ptr }
%"class.std::unique_ptr.66" = type { %"struct.std::__uniq_ptr_data.67" }
%"struct.std::__uniq_ptr_data.67" = type { %"class.std::__uniq_ptr_impl.68" }
%"class.std::__uniq_ptr_impl.68" = type { %"class.std::tuple.69" }
%"class.std::tuple.69" = type { %"struct.std::_Tuple_impl.70" }
%"struct.std::_Tuple_impl.70" = type { %"struct.std::_Head_base.73" }
%"struct.std::_Head_base.73" = type { ptr }

; Function Attrs: mustprogress nounwind uwtable
define linkonce_odr noundef nonnull align 8 dereferenceable(8) ptr @_ZNSt10_Head_baseILm0EPN10open_spiel10algorithms3MDPELb0EE7_M_headERKS4_(ptr noundef nonnull align 8 dereferenceable(8) %0) #5 comdat align 2 {
  %2 = alloca ptr, align 8
  store ptr %0, ptr %2, align 8
  %3 = load ptr, ptr %2, align 8
  %4 = getelementptr inbounds nuw %"struct.std::_Head_base.73", ptr %3, i32 0, i32 0
  ret ptr %4
}

; Function Attrs: mustprogress nounwind uwtable
define linkonce_odr noundef nonnull align 8 dereferenceable(8) ptr @_ZNSt11_Tuple_implILm0EJPN10open_spiel10algorithms3MDPESt14default_deleteIS2_EEE7_M_headERKS6_(ptr noundef nonnull align 8 dereferenceable(8) %0) #5 comdat align 2 {
  %2 = alloca ptr, align 8
  store ptr %0, ptr %2, align 8
  %3 = load ptr, ptr %2, align 8
  %4 = call noundef nonnull align 8 dereferenceable(8) ptr @_ZNSt10_Head_baseILm0EPN10open_spiel10algorithms3MDPELb0EE7_M_headERKS4_(ptr noundef nonnull align 8 dereferenceable(8) %3) #3
  ret ptr %4
}

; Function Attrs: mustprogress nounwind uwtable
define linkonce_odr noundef nonnull align 8 dereferenceable(8) ptr @_ZSt12__get_helperILm0EPN10open_spiel10algorithms3MDPEJSt14default_deleteIS2_EEERKT0_RKSt11_Tuple_implIXT_EJS6_DpT1_EE(ptr noundef nonnull align 8 dereferenceable(8) %0) #5 comdat {
  %2 = alloca ptr, align 8
  store ptr %0, ptr %2, align 8
  %3 = load ptr, ptr %2, align 8
  %4 = call noundef nonnull align 8 dereferenceable(8) ptr @_ZNSt11_Tuple_implILm0EJPN10open_spiel10algorithms3MDPESt14default_deleteIS2_EEE7_M_headERKS6_(ptr noundef nonnull align 8 dereferenceable(8) %3) #3
  ret ptr %4
}

; Function Attrs: mustprogress nounwind uwtable
define linkonce_odr noundef nonnull align 8 dereferenceable(8) ptr @_ZSt3getILm0EJPN10open_spiel10algorithms3MDPESt14default_deleteIS2_EEERKNSt13tuple_elementIXT_ESt5tupleIJDpT0_EEE4typeERKSA_(ptr noundef nonnull align 8 dereferenceable(8) %0) #5 comdat {
  %2 = alloca ptr, align 8
  store ptr %0, ptr %2, align 8
  %3 = load ptr, ptr %2, align 8
  %4 = call noundef nonnull align 8 dereferenceable(8) ptr @_ZSt12__get_helperILm0EPN10open_spiel10algorithms3MDPEJSt14default_deleteIS2_EEERKT0_RKSt11_Tuple_implIXT_EJS6_DpT1_EE(ptr noundef nonnull align 8 dereferenceable(8) %3) #3
  ret ptr %4
}

; Function Attrs: mustprogress nounwind uwtable
define linkonce_odr noundef ptr @_ZNKSt15__uniq_ptr_implIN10open_spiel10algorithms3MDPESt14default_deleteIS2_EE6_M_ptrEv(ptr noundef nonnull align 8 dereferenceable(8) %0) #5 comdat align 2 {
  %2 = alloca ptr, align 8
  store ptr %0, ptr %2, align 8
  %3 = load ptr, ptr %2, align 8
  %4 = getelementptr inbounds nuw %"class.std::__uniq_ptr_impl.68", ptr %3, i32 0, i32 0
  %5 = call noundef nonnull align 8 dereferenceable(8) ptr @_ZSt3getILm0EJPN10open_spiel10algorithms3MDPESt14default_deleteIS2_EEERKNSt13tuple_elementIXT_ESt5tupleIJDpT0_EEE4typeERKSA_(ptr noundef nonnull align 8 dereferenceable(8) %4) #3
  %6 = load ptr, ptr %5, align 8
  ret ptr %6
}

; Function Attrs: mustprogress nounwind uwtable
define linkonce_odr noundef i64 @_ZNK4absl7debian218container_internal12raw_hash_setINS1_17FlatHashMapPolicyINSt7__cxx1112basic_stringIcSt11char_traitsIcESaIcEEESt10unique_ptrIN10open_spiel10algorithms7MDPNodeESt14default_deleteISD_EEEENS1_10StringHashENS1_12StringHashEq2EqESaISt4pairIKS9_SG_EEE4sizeEv(ptr noundef nonnull align 8 dereferenceable(40) %0) #5 comdat align 2 {
  %2 = alloca ptr, align 8
  store ptr %0, ptr %2, align 8
  %3 = load ptr, ptr %2, align 8
  %4 = getelementptr inbounds nuw %"class.absl::debian2::container_internal::raw_hash_set.20", ptr %3, i32 0, i32 2
  %5 = load i64, ptr %4, align 8
  ret i64 %5
}

; Function Attrs: mustprogress nounwind uwtable
define linkonce_odr noundef ptr @_ZNKSt10unique_ptrIN10open_spiel10algorithms3MDPESt14default_deleteIS2_EE3getEv(ptr noundef nonnull align 8 dereferenceable(8) %0) #5 comdat align 2 {
  %2 = alloca ptr, align 8
  store ptr %0, ptr %2, align 8
  %3 = load ptr, ptr %2, align 8
  %4 = getelementptr inbounds nuw %"class.std::unique_ptr.66", ptr %3, i32 0, i32 0
  %5 = call noundef ptr @_ZNKSt15__uniq_ptr_implIN10open_spiel10algorithms3MDPESt14default_deleteIS2_EE6_M_ptrEv(ptr noundef nonnull align 8 dereferenceable(8) %4) #3
  ret ptr %5
}

; Function Attrs: mustprogress uwtable
define linkonce_odr noundef i32 @_ZNK10open_spiel10algorithms3MDP9TotalSizeEv(ptr noundef nonnull align 8 dereferenceable(52) %0) #4 comdat align 2 {
  %2 = alloca ptr, align 8
  store ptr %0, ptr %2, align 8
  %3 = load ptr, ptr %2, align 8
  %4 = getelementptr inbounds nuw %"class.open_spiel::algorithms::MDP", ptr %3, i32 0, i32 0
  %5 = call noundef i64 @_ZNK4absl7debian218container_internal12raw_hash_setINS1_17FlatHashMapPolicyINSt7__cxx1112basic_stringIcSt11char_traitsIcESaIcEEESt10unique_ptrIN10open_spiel10algorithms7MDPNodeESt14default_deleteISD_EEEENS1_10StringHashENS1_12StringHashEq2EqESaISt4pairIKS9_SG_EEE4sizeEv(ptr noundef nonnull align 8 dereferenceable(40) %4)
  %6 = trunc i64 %5 to i32
  ret i32 %6
}

; Function Attrs: mustprogress nounwind uwtable
define linkonce_odr noundef ptr @_ZNKSt10unique_ptrIN10open_spiel10algorithms3MDPESt14default_deleteIS2_EEptEv(ptr noundef nonnull align 8 dereferenceable(8) %0) #5 comdat align 2 {
  %2 = alloca ptr, align 8
  store ptr %0, ptr %2, align 8
  %3 = load ptr, ptr %2, align 8
  %4 = call noundef ptr @_ZNKSt10unique_ptrIN10open_spiel10algorithms3MDPESt14default_deleteIS2_EE3getEv(ptr noundef nonnull align 8 dereferenceable(8) %3) #3
  ret ptr %4
}

; Function Attrs: mustprogress nounwind uwtable
define linkonce_odr noundef nonnull align 8 dereferenceable(8) ptr @_ZNKSt6vectorISt10unique_ptrIN10open_spiel10algorithms3MDPESt14default_deleteIS3_EESaIS6_EEixEm(ptr noundef nonnull align 8 dereferenceable(24) %0, i64 noundef %1) #5 comdat align 2 {
  %3 = alloca ptr, align 8
  %4 = alloca i64, align 8
  store ptr %0, ptr %3, align 8
  store i64 %1, ptr %4, align 8
  %5 = load ptr, ptr %3, align 8
  %6 = getelementptr inbounds nuw %"struct.std::_Vector_base.59", ptr %5, i32 0, i32 0
  %7 = getelementptr inbounds nuw %"struct.std::_Vector_base<std::unique_ptr<open_spiel::algorithms::MDP>, std::allocator<std::unique_ptr<open_spiel::algorithms::MDP>>>::_Vector_impl_data", ptr %6, i32 0, i32 0
  %8 = load ptr, ptr %7, align 8
  %9 = load i64, ptr %4, align 8
  %10 = getelementptr inbounds %"class.std::unique_ptr.66", ptr %8, i64 %9
  ret ptr %10
}

; Function Attrs: mustprogress uwtable
define noundef i32 @_ZNK10open_spiel10algorithms22TabularBestResponseMDP9TotalSizeEv(ptr noundef nonnull align 8 dereferenceable(44) %0) #4 align 2 {
  %2 = alloca ptr, align 8
  %3 = alloca i32, align 4
  %4 = alloca i32, align 4
  store ptr %0, ptr %2, align 8
  %5 = load ptr, ptr %2, align 8
  store i32 0, ptr %3, align 4
  store i32 0, ptr %4, align 4
  br label %6

6:                                                ; preds = %20, %1
  %7 = load i32, ptr %4, align 4
  %8 = getelementptr inbounds nuw %"class.open_spiel::algorithms::TabularBestResponseMDP", ptr %5, i32 0, i32 3
  %9 = load i32, ptr %8, align 8
  %10 = icmp slt i32 %7, %9
  br i1 %10, label %11, label %23

11:                                               ; preds = %6
  %12 = getelementptr inbounds nuw %"class.open_spiel::algorithms::TabularBestResponseMDP", ptr %5, i32 0, i32 0
  %13 = load i32, ptr %4, align 4
  %14 = sext i32 %13 to i64
  %15 = call noundef nonnull align 8 dereferenceable(8) ptr @_ZNKSt6vectorISt10unique_ptrIN10open_spiel10algorithms3MDPESt14default_deleteIS3_EESaIS6_EEixEm(ptr noundef nonnull align 8 dereferenceable(24) %12, i64 noundef %14) #3
  %16 = call noundef ptr @_ZNKSt10unique_ptrIN10open_spiel10algorithms3MDPESt14default_deleteIS2_EEptEv(ptr noundef nonnull align 8 dereferenceable(8) %15) #3
  %17 = call noundef i32 @_ZNK10open_spiel10algorithms3MDP9TotalSizeEv(ptr noundef nonnull align 8 dereferenceable(52) %16)
  %18 = load i32, ptr %3, align 4
  %19 = add nsw i32 %18, %17
  store i32 %19, ptr %3, align 4
  br label %20

20:                                               ; preds = %11
  %21 = load i32, ptr %4, align 4
  %22 = add nsw i32 %21, 1
  store i32 %22, ptr %4, align 4
  br label %6, !llvm.loop !11

23:                                               ; preds = %6
  %24 = load i32, ptr %3, align 4
  ret i32 %24
}