; Function Attrs: mustprogress nofree norecurse nosync nounwind willreturn memory(read, inaccessiblemem: none) uwtable
define noundef i32 @_ZNK10open_spiel10algorithms22TabularBestResponseMDP9TotalSizeEv(ptr noundef nonnull readonly align 8 captures(none) dereferenceable(44) %0) local_unnamed_addr #10 align 2 {
  %2 = getelementptr inbounds nuw i8, ptr %0, i64 40
  %3 = load i32, ptr %2, align 8
  %4 = icmp sgt i32 %3, 0
  br i1 %4, label %.lr.ph, label %._crit_edge

.lr.ph:                                           ; preds = %1
  %5 = load ptr, ptr %0, align 8
  %wide.trip.count = zext nneg i32 %3 to i64
  br label %6

6:                                                ; preds = %.lr.ph, %6
  %indvars.iv = phi i64 [ 0, %.lr.ph ], [ %indvars.iv.next, %6 ]
  %.056 = phi i32 [ 0, %.lr.ph ], [ %12, %6 ]
  %7 = getelementptr inbounds nuw %"class.std::unique_ptr.66", ptr %5, i64 %indvars.iv
  %8 = load ptr, ptr %7, align 8
  %9 = getelementptr inbounds nuw i8, ptr %8, i64 16
  %10 = load i64, ptr %9, align 8
  %11 = trunc i64 %10 to i32
  %12 = add nsw i32 %.056, %11
  %indvars.iv.next = add nuw nsw i64 %indvars.iv, 1
  %exitcond.not = icmp eq i64 %indvars.iv.next, %wide.trip.count
  br i1 %exitcond.not, label %._crit_edge, label %6, !llvm.loop !67

._crit_edge:                                      ; preds = %6, %1
  %.05.lcssa = phi i32 [ 0, %1 ], [ %12, %6 ]
  ret i32 %.05.lcssa
}